******************************************************************************
TMS320C54x COFF Linker           Version 3.50                   
******************************************************************************
>> Linked Fri Feb 02 18:01:31 2001

OUTPUT FILE NAME:   <rtdxtutorial_5x.out>
ENTRY POINT SYMBOL: "_c_int00"  address: 000000e3


MEMORY CONFIGURATION

           name     origin    length      used    attributes    fill
         --------  --------  ---------  --------  ----------  --------
PAGE 0: RSV1      00000000  000000080  00000000     R       
         DARAM     00000080  000003f80  000007e4     RWIX    
         EXT0      00004000  00000bf80  00000000     R       
         VECS      0000ff80  000000080  00000074     RWIX    

PAGE 1: MMRS      00000000  000000060  00000000     RW      
         SPAD      00000060  000000020  00000000     RW      
         DARAM     00000080  000003f80  00000000     RWIX    
         EXT0      00004000  00000c000  00000000     R       


SECTION ALLOCATION MAP

 output                                  attributes/
section   page    origin      length       input sections
--------  ----  ----------  ----------   ----------------
.text      0    00000080    000002a9     
                  00000080    00000000     intvecs.obj (.text)
                  00000080    00000000     rtdx.lib : version.obj (.text)
                  00000080    00000000              : rtdx_mon.obj (.text)
                  00000080    00000000              : rtdx_buf.obj (.text)
                  00000080    00000063     int16_rtdx.obj (.text)
                  000000e3    00000045     rts.lib : boot.obj (.text)
                  00000128    0000003d             : exit.obj (.text)
                  00000165    00000031     rtdx.lib : rtdx_us1.obj (.text)
                  00000196    00000092              : rtdx_us2.obj (.text)
                  00000228    000000d4              : buffer1.obj (.text)
                  000002fc    0000001e              : buffer2.obj (.text)
                  0000031a    0000000f     rts.lib : memcpy.obj (.text)

.rtdx_text   0    00000329    0000010f     
                  00000329    0000010f     rtdx.lib : rtdx_mon.obj (.rtdx_text)

.cinit     0    00000438    00000015     
                  00000438    00000008     int16_rtdx.obj (.cinit)
                  00000440    00000006     rts.lib : exit.obj (.cinit)
                  00000446    00000006     rtdx.lib : buffer1.obj (.cinit)
                  0000044c    00000001     --HOLE-- [fill = 0000]

.pinit     0    0000044d    00000004     
                  0000044d    00000001     rtdx.lib : buffer1.obj (.pinit)
                  0000044e    00000001              : rtdx_mon.obj (.pinit)
                  0000044f    00000002     --HOLE-- [fill = 0000]

.switch    0    00000451    00000000     UNINITIALIZED

.cio       0    00000451    00000000     UNINITIALIZED

.bss       0    00000451    00000034     UNINITIALIZED
                  00000451    00000000     intvecs.obj (.bss)
                  00000451    00000000     rts.lib : memcpy.obj (.bss)
                  00000451    00000000     rtdx.lib : version.obj (.bss)
                  00000451    00000000              : rtdx_mon.obj (.bss)
                  00000451    00000000              : rtdx_buf.obj (.bss)
                  00000451    00000000              : buffer2.obj (.bss)
                  00000451    00000000              : rtdx_us2.obj (.bss)
                  00000451    00000000              : rtdx_us1.obj (.bss)
                  00000451    00000000     rts.lib : boot.obj (.bss)
                  00000451    0000000e     int16_rtdx.obj (.bss)
                  0000045f    00000022     rts.lib : exit.obj (.bss)
                  00000481    00000004     rtdx.lib : buffer1.obj (.bss)

.rtdx_data   0    00000500    0000010e     
                  00000500    0000000d     rtdx.lib : rtdx_mon.obj (.rtdx_data)
                  0000050d    00000101              : rtdx_buf.obj (.rtdx_data) [fill = 0000]

.const     0    0000060e    00000000     UNINITIALIZED

.sysmem    0    0000060e    00000000     

.stack     0    0000060e    00000256     
                  0000060e    00000000     rts.lib : boot.obj (.stack)
                  0000060e    00000256     --HOLE-- [fill = beef]

.intvecs   0    0000ff80    00000074     
                  0000ff80    00000074     intvecs.obj (.intvecs)

.data      1    00000060    00000000     UNINITIALIZED
                  00000060    00000000     intvecs.obj (.data)
                  00000060    00000000     rts.lib : memcpy.obj (.data)
                  00000060    00000000     rtdx.lib : version.obj (.data)
                  00000060    00000000              : rtdx_mon.obj (.data)
                  00000060    00000000              : rtdx_buf.obj (.data)
                  00000060    00000000              : buffer2.obj (.data)
                  00000060    00000000              : buffer1.obj (.data)
                  00000060    00000000              : rtdx_us2.obj (.data)
                  00000060    00000000              : rtdx_us1.obj (.data)
                  00000060    00000000     rts.lib : exit.obj (.data)
                  00000060    00000000             : boot.obj (.data)
                  00000060    00000000     int16_rtdx.obj (.data)


GLOBAL SYMBOLS: SORTED ALPHABETICALLY BY Name 

address    name
--------   ----
00000451   .bss
00000060   .data
00000080   .text
0000032b   ATRAP_H
00000162   C$$EXIT
0000060d   _RTDX_Buffer_End
000002ab   _RTDX_Buffer_Initialize
000002fc   _RTDX_Buffer_Read
0000050d   _RTDX_Buffer_Start
000002b8   _RTDX_Buffer_Write
00000412   _RTDX_Final_RT_Monitor
00000422   _RTDX_Init_RT_Monitor
00000001   _RTDX_JTAGONLY
000003fc   _RTDX_Mon_Write
0000038a   _RTDX_Poll
000001a7   _RTDX_disableInput
00000171   _RTDX_disableOutput
00000196   _RTDX_enableInput
00000165   _RTDX_enableOutput
fffffff7   _RTDX_interrupt_mask
000001f1   _RTDX_readNB
000001c0   _RTDX_read
00000001   _RTDX_ver_1_0_5
00000001   _RTDX_ver
0000017d   _RTDX_write
00000483   _RTDX_writing
00000256   __STACK_SIZE
00000451   ___bss__
00000438   ___cinit__
00000060   ___data__
00000060   ___edata__
00000485   ___end__
00000329   ___etext__
0000044d   ___pinit__
00000080   ___text__
00000480   __cleanup_ptr
00000001   __lflags
00000162   _abort
0000014b   _atexit
000000e3   _c_int00
00000128   _exit
0000045b   _ichan
00000080   _main
0000031a   _memcpy
0000045e   _ochan
00000451   _recvd
00000438   cinit
00000060   edata
00000485   end
00000329   etext
0000044d   pinit


GLOBAL SYMBOLS: SORTED BY Symbol Address 

address    name
--------   ----
00000001   _RTDX_ver_1_0_5
00000001   _RTDX_JTAGONLY
00000001   __lflags
00000001   _RTDX_ver
00000060   ___data__
00000060   ___edata__
00000060   edata
00000060   .data
00000080   ___text__
00000080   _main
00000080   .text
000000e3   _c_int00
00000128   _exit
0000014b   _atexit
00000162   C$$EXIT
00000162   _abort
00000165   _RTDX_enableOutput
00000171   _RTDX_disableOutput
0000017d   _RTDX_write
00000196   _RTDX_enableInput
000001a7   _RTDX_disableInput
000001c0   _RTDX_read
000001f1   _RTDX_readNB
00000256   __STACK_SIZE
000002ab   _RTDX_Buffer_Initialize
000002b8   _RTDX_Buffer_Write
000002fc   _RTDX_Buffer_Read
0000031a   _memcpy
00000329   etext
00000329   ___etext__
0000032b   ATRAP_H
0000038a   _RTDX_Poll
000003fc   _RTDX_Mon_Write
00000412   _RTDX_Final_RT_Monitor
00000422   _RTDX_Init_RT_Monitor
00000438   ___cinit__
00000438   cinit
0000044d   ___pinit__
0000044d   pinit
00000451   _recvd
00000451   ___bss__
00000451   .bss
0000045b   _ichan
0000045e   _ochan
00000480   __cleanup_ptr
00000483   _RTDX_writing
00000485   end
00000485   ___end__
0000050d   _RTDX_Buffer_Start
0000060d   _RTDX_Buffer_End
fffffff7   _RTDX_interrupt_mask

[51 symbols]
